
libQPBO.a(QPBO.o):
0000000000002800 s EH_frame0
0000000000001d38 s L_.str
0000000000001d41 s L_.str1
0000000000001e4b s L_.str10
0000000000001e54 s L_.str11
0000000000001e86 s L_.str12
0000000000001d57 s L_.str2
0000000000001da7 s L_.str3
0000000000001dcf s L_.str4
0000000000001de3 s L_.str5
0000000000001df8 s L_.str6
0000000000001e04 s L_.str7
0000000000001e0f s L_.str8
0000000000001e1a s L_.str9
0000000000001e3a s L___func__._ZN4QPBOIdE16reallocate_nodesEi
0000000000001d4a s L___func__._ZN4QPBOIiE12AddUnaryTermEiii
0000000000001d80 s L___func__._ZN4QPBOIiE17GetTwiceUnaryTermEiRiS1_
0000000000001d92 s L___func__._ZN4QPBOIiE20GetTwicePairwiseTermEiRiS1_S1_S1_S1_S1_
0000000000001d30 s L___func__._ZN4QPBOIiE7AddNodeEi
0000000000001d6e s L___func__._ZN4QPBOIiE8GetLabelEi
0000000000001dda s L___func__._ZN4QPBOIiE8GetMate0EPNS0_4NodeE
0000000000001def s L___func__._ZN4QPBOIiE8GetMate1EPNS0_4NodeE
0000000000001d77 s L___func__._ZN4QPBOIiE8SetLabelEii
0000000000001dc5 s L___func__._ZN4QPBOIiE9GetRegionEi
00000000000016f0 S __ZN4QPBOIdE10GetNodeNumEv
0000000000003118 S __ZN4QPBOIdE10GetNodeNumEv.eh
0000000000001c10 S __ZN4QPBOIdE12AddUnaryTermEPNS0_4NodeEdd
00000000000033a0 S __ZN4QPBOIdE12AddUnaryTermEPNS0_4NodeEdd.eh
00000000000015c0 S __ZN4QPBOIdE12AddUnaryTermEidd
00000000000030a0 S __ZN4QPBOIdE12AddUnaryTermEidd.eh
0000000000001a00 S __ZN4QPBOIdE12ProbeOptionsC1Ev
0000000000003238 S __ZN4QPBOIdE12ProbeOptionsC1Ev.eh
00000000000019c0 S __ZN4QPBOIdE12ProbeOptionsC2Ev
0000000000003210 S __ZN4QPBOIdE12ProbeOptionsC2Ev.eh
0000000000001cf0 S __ZN4QPBOIdE12what_segmentEPNS0_4NodeEi
00000000000033f0 S __ZN4QPBOIdE12what_segmentEPNS0_4NodeEi.eh
0000000000001330 S __ZN4QPBOIdE13GetMaxEdgeNumEv
0000000000003018 S __ZN4QPBOIdE13GetMaxEdgeNumEv.eh
0000000000001710 S __ZN4QPBOIdE13GetNextEdgeIdEi
0000000000003140 S __ZN4QPBOIdE13GetNextEdgeIdEi.eh
0000000000001a40 S __ZN4QPBOIdE14ComputeWeightsEddddRdS1_S1_S1_
0000000000003260 S __ZN4QPBOIdE14ComputeWeightsEddddRdS1_S1_S1_.eh
0000000000001430 S __ZN4QPBOIdE16reallocate_nodesEi
0000000000003070 S __ZN4QPBOIdE16reallocate_nodesEi.eh
0000000000001760 S __ZN4QPBOIdE17GetTwiceUnaryTermEiRdS1_
0000000000003168 S __ZN4QPBOIdE17GetTwiceUnaryTermEiRdS1_.eh
00000000000017d0 S __ZN4QPBOIdE20GetTwicePairwiseTermEiRiS1_RdS2_S2_S2_
0000000000003190 S __ZN4QPBOIdE20GetTwicePairwiseTermEiRiS1_RdS2_S2_S2_.eh
0000000000001b60 S __ZN4QPBOIdE6IsArc0EPNS0_3ArcE
0000000000003300 S __ZN4QPBOIdE6IsArc0EPNS0_3ArcE.eh
0000000000001350 S __ZN4QPBOIdE7AddNodeEi
0000000000003040 S __ZN4QPBOIdE7AddNodeEi.eh
0000000000001bf0 S __ZN4QPBOIdE7GetMateEPNS0_3ArcE
0000000000003378 S __ZN4QPBOIdE7GetMateEPNS0_3ArcE.eh
0000000000001b40 S __ZN4QPBOIdE7GetMateEPNS0_4NodeE
00000000000032d8 S __ZN4QPBOIdE7GetMateEPNS0_4NodeE.eh
0000000000001940 S __ZN4QPBOIdE7IsNode0EPNS0_4NodeE
00000000000031c0 S __ZN4QPBOIdE7IsNode0EPNS0_4NodeE.eh
0000000000001640 S __ZN4QPBOIdE8GetLabelEi
00000000000030c8 S __ZN4QPBOIdE8GetLabelEi.eh
0000000000001b70 S __ZN4QPBOIdE8GetMate0EPNS0_3ArcE
0000000000003328 S __ZN4QPBOIdE8GetMate0EPNS0_3ArcE.eh
0000000000001ac0 S __ZN4QPBOIdE8GetMate0EPNS0_4NodeE
0000000000003288 S __ZN4QPBOIdE8GetMate0EPNS0_4NodeE.eh
0000000000001bb0 S __ZN4QPBOIdE8GetMate1EPNS0_3ArcE
0000000000003350 S __ZN4QPBOIdE8GetMate1EPNS0_3ArcE.eh
0000000000001b00 S __ZN4QPBOIdE8GetMate1EPNS0_4NodeE
00000000000032b0 S __ZN4QPBOIdE8GetMate1EPNS0_4NodeE.eh
0000000000001690 S __ZN4QPBOIdE8SetLabelEii
00000000000030f0 S __ZN4QPBOIdE8SetLabelEii.eh
0000000000001950 S __ZN4QPBOIdE9GetRegionEi
00000000000031e8 S __ZN4QPBOIdE9GetRegionEi.eh
0000000000001cb0 S __ZN4QPBOIdE9mark_nodeEPNS0_4NodeE
00000000000033c8 S __ZN4QPBOIdE9mark_nodeEPNS0_4NodeE.eh
0000000000000d20 S __ZN4QPBOIfE10GetNodeNumEv
0000000000002d18 S __ZN4QPBOIfE10GetNodeNumEv.eh
0000000000001230 S __ZN4QPBOIfE12AddUnaryTermEPNS0_4NodeEff
0000000000002fa0 S __ZN4QPBOIfE12AddUnaryTermEPNS0_4NodeEff.eh
0000000000000bf0 S __ZN4QPBOIfE12AddUnaryTermEiff
0000000000002ca0 S __ZN4QPBOIfE12AddUnaryTermEiff.eh
0000000000001030 S __ZN4QPBOIfE12ProbeOptionsC1Ev
0000000000002e38 S __ZN4QPBOIfE12ProbeOptionsC1Ev.eh
0000000000000ff0 S __ZN4QPBOIfE12ProbeOptionsC2Ev
0000000000002e10 S __ZN4QPBOIfE12ProbeOptionsC2Ev.eh
0000000000001310 S __ZN4QPBOIfE12what_segmentEPNS0_4NodeEi
0000000000002ff0 S __ZN4QPBOIfE12what_segmentEPNS0_4NodeEi.eh
0000000000000960 S __ZN4QPBOIfE13GetMaxEdgeNumEv
0000000000002c18 S __ZN4QPBOIfE13GetMaxEdgeNumEv.eh
0000000000000d40 S __ZN4QPBOIfE13GetNextEdgeIdEi
0000000000002d40 S __ZN4QPBOIfE13GetNextEdgeIdEi.eh
0000000000001070 S __ZN4QPBOIfE14ComputeWeightsEffffRfS1_S1_S1_
0000000000002e60 S __ZN4QPBOIfE14ComputeWeightsEffffRfS1_S1_S1_.eh
0000000000000a60 S __ZN4QPBOIfE16reallocate_nodesEi
0000000000002c70 S __ZN4QPBOIfE16reallocate_nodesEi.eh
0000000000000d90 S __ZN4QPBOIfE17GetTwiceUnaryTermEiRfS1_
0000000000002d68 S __ZN4QPBOIfE17GetTwiceUnaryTermEiRfS1_.eh
0000000000000e00 S __ZN4QPBOIfE20GetTwicePairwiseTermEiRiS1_RfS2_S2_S2_
0000000000002d90 S __ZN4QPBOIfE20GetTwicePairwiseTermEiRiS1_RfS2_S2_S2_.eh
0000000000001180 S __ZN4QPBOIfE6IsArc0EPNS0_3ArcE
0000000000002f00 S __ZN4QPBOIfE6IsArc0EPNS0_3ArcE.eh
0000000000000980 S __ZN4QPBOIfE7AddNodeEi
0000000000002c40 S __ZN4QPBOIfE7AddNodeEi.eh
0000000000001210 S __ZN4QPBOIfE7GetMateEPNS0_3ArcE
0000000000002f78 S __ZN4QPBOIfE7GetMateEPNS0_3ArcE.eh
0000000000001160 S __ZN4QPBOIfE7GetMateEPNS0_4NodeE
0000000000002ed8 S __ZN4QPBOIfE7GetMateEPNS0_4NodeE.eh
0000000000000f70 S __ZN4QPBOIfE7IsNode0EPNS0_4NodeE
0000000000002dc0 S __ZN4QPBOIfE7IsNode0EPNS0_4NodeE.eh
0000000000000c70 S __ZN4QPBOIfE8GetLabelEi
0000000000002cc8 S __ZN4QPBOIfE8GetLabelEi.eh
0000000000001190 S __ZN4QPBOIfE8GetMate0EPNS0_3ArcE
0000000000002f28 S __ZN4QPBOIfE8GetMate0EPNS0_3ArcE.eh
00000000000010e0 S __ZN4QPBOIfE8GetMate0EPNS0_4NodeE
0000000000002e88 S __ZN4QPBOIfE8GetMate0EPNS0_4NodeE.eh
00000000000011d0 S __ZN4QPBOIfE8GetMate1EPNS0_3ArcE
0000000000002f50 S __ZN4QPBOIfE8GetMate1EPNS0_3ArcE.eh
0000000000001120 S __ZN4QPBOIfE8GetMate1EPNS0_4NodeE
0000000000002eb0 S __ZN4QPBOIfE8GetMate1EPNS0_4NodeE.eh
0000000000000cc0 S __ZN4QPBOIfE8SetLabelEii
0000000000002cf0 S __ZN4QPBOIfE8SetLabelEii.eh
0000000000000f80 S __ZN4QPBOIfE9GetRegionEi
0000000000002de8 S __ZN4QPBOIfE9GetRegionEi.eh
00000000000012d0 S __ZN4QPBOIfE9mark_nodeEPNS0_4NodeE
0000000000002fc8 S __ZN4QPBOIfE9mark_nodeEPNS0_4NodeE.eh
00000000000003a0 S __ZN4QPBOIiE10GetNodeNumEv
0000000000002918 S __ZN4QPBOIiE10GetNodeNumEv.eh
0000000000000880 S __ZN4QPBOIiE12AddUnaryTermEPNS0_4NodeEii
0000000000002ba0 S __ZN4QPBOIiE12AddUnaryTermEPNS0_4NodeEii.eh
0000000000000290 S __ZN4QPBOIiE12AddUnaryTermEiii
00000000000028a0 S __ZN4QPBOIiE12AddUnaryTermEiii.eh
0000000000000690 S __ZN4QPBOIiE12ProbeOptionsC1Ev
0000000000002a38 S __ZN4QPBOIiE12ProbeOptionsC1Ev.eh
0000000000000650 S __ZN4QPBOIiE12ProbeOptionsC2Ev
0000000000002a10 S __ZN4QPBOIiE12ProbeOptionsC2Ev.eh
0000000000000940 S __ZN4QPBOIiE12what_segmentEPNS0_4NodeEi
0000000000002bf0 S __ZN4QPBOIiE12what_segmentEPNS0_4NodeEi.eh
0000000000000000 S __ZN4QPBOIiE13GetMaxEdgeNumEv
0000000000002818 S __ZN4QPBOIiE13GetMaxEdgeNumEv.eh
00000000000003c0 S __ZN4QPBOIiE13GetNextEdgeIdEi
0000000000002940 S __ZN4QPBOIiE13GetNextEdgeIdEi.eh
00000000000006d0 S __ZN4QPBOIiE14ComputeWeightsEiiiiRiS1_S1_S1_
0000000000002a60 S __ZN4QPBOIiE14ComputeWeightsEiiiiRiS1_S1_S1_.eh
0000000000000100 S __ZN4QPBOIiE16reallocate_nodesEi
0000000000002870 S __ZN4QPBOIiE16reallocate_nodesEi.eh
0000000000000410 S __ZN4QPBOIiE17GetTwiceUnaryTermEiRiS1_
0000000000002968 S __ZN4QPBOIiE17GetTwiceUnaryTermEiRiS1_.eh
0000000000000480 S __ZN4QPBOIiE20GetTwicePairwiseTermEiRiS1_S1_S1_S1_S1_
0000000000002990 S __ZN4QPBOIiE20GetTwicePairwiseTermEiRiS1_S1_S1_S1_S1_.eh
00000000000007d0 S __ZN4QPBOIiE6IsArc0EPNS0_3ArcE
0000000000002b00 S __ZN4QPBOIiE6IsArc0EPNS0_3ArcE.eh
0000000000000020 S __ZN4QPBOIiE7AddNodeEi
0000000000002840 S __ZN4QPBOIiE7AddNodeEi.eh
0000000000000860 S __ZN4QPBOIiE7GetMateEPNS0_3ArcE
0000000000002b78 S __ZN4QPBOIiE7GetMateEPNS0_3ArcE.eh
00000000000007b0 S __ZN4QPBOIiE7GetMateEPNS0_4NodeE
0000000000002ad8 S __ZN4QPBOIiE7GetMateEPNS0_4NodeE.eh
00000000000005d0 S __ZN4QPBOIiE7IsNode0EPNS0_4NodeE
00000000000029c0 S __ZN4QPBOIiE7IsNode0EPNS0_4NodeE.eh
00000000000002f0 S __ZN4QPBOIiE8GetLabelEi
00000000000028c8 S __ZN4QPBOIiE8GetLabelEi.eh
00000000000007e0 S __ZN4QPBOIiE8GetMate0EPNS0_3ArcE
0000000000002b28 S __ZN4QPBOIiE8GetMate0EPNS0_3ArcE.eh
0000000000000730 S __ZN4QPBOIiE8GetMate0EPNS0_4NodeE
0000000000002a88 S __ZN4QPBOIiE8GetMate0EPNS0_4NodeE.eh
0000000000000820 S __ZN4QPBOIiE8GetMate1EPNS0_3ArcE
0000000000002b50 S __ZN4QPBOIiE8GetMate1EPNS0_3ArcE.eh
0000000000000770 S __ZN4QPBOIiE8GetMate1EPNS0_4NodeE
0000000000002ab0 S __ZN4QPBOIiE8GetMate1EPNS0_4NodeE.eh
0000000000000340 S __ZN4QPBOIiE8SetLabelEii
00000000000028f0 S __ZN4QPBOIiE8SetLabelEii.eh
00000000000005e0 S __ZN4QPBOIiE9GetRegionEi
00000000000029e8 S __ZN4QPBOIiE9GetRegionEi.eh
0000000000000900 S __ZN4QPBOIiE9mark_nodeEPNS0_4NodeE
0000000000002bc8 S __ZN4QPBOIiE9mark_nodeEPNS0_4NodeE.eh
                 U ___assert_rtn
                 U ___bzero
                 U ___stack_chk_fail
                 U ___stack_chk_guard
                 U _exit
                 U _memmove
                 U _realloc

libQPBO.a(QPBO_extra.o):
000000000000de50 s EH_frame0
000000000000e230 s EH_frame1
000000000000d8d0 s GCC_except_table101
000000000000d650 s GCC_except_table23
000000000000d790 s GCC_except_table62
000000000000da38 s L_.str
000000000000da41 s L_.str1
000000000000db49 s L_.str10
000000000000db5a s L_.str11
000000000000db77 s L_.str13
000000000000db94 s L_.str14
000000000000dbac s L_.str15
000000000000dbc8 s L_.str16
000000000000dbdf s L_.str17
000000000000dc0d s L_.str18
000000000000dc4f s L_.str19
000000000000da57 s L_.str2
000000000000dc91 s L_.str20
000000000000dcc7 s L_.str21
000000000000dce5 s L_.str22
000000000000dd0f s L_.str23
000000000000dd3a s L_.str24
000000000000dd7b s L_.str25
000000000000dda0 s L_.str26
000000000000ddc4 s L_.str27
000000000000daa7 s L_.str3
000000000000dded s L_.str30
000000000000dacf s L_.str4
000000000000dae2 s L_.str5
000000000000daf1 s L_.str6
000000000000db1d s L_.str7
000000000000db32 s L_.str8
000000000000db3e s L_.str9
000000000000dde8 s L___func__._ZN4List4MoveEii
000000000000da4a s L___func__._ZN4QPBOIiE12AddUnaryTermEiii
000000000000dbff s L___func__._ZN4QPBOIiE13ContractNodesEPNS0_4NodeES2_i
000000000000dd69 s L___func__._ZN4QPBOIiE17AllocateNewEnergyEPi
000000000000da80 s L___func__._ZN4QPBOIiE17GetTwiceUnaryTermEiRiS1_
000000000000dc3c s L___func__._ZN4QPBOIiE18MergeParallelEdgesEPNS0_3ArcES2_
000000000000da92 s L___func__._ZN4QPBOIiE20GetTwicePairwiseTermEiRiS1_S1_S1_S1_S1_
000000000000dd24 s L___func__._ZN4QPBOIiE21AddDirectedConstraintEPNS0_4NodeES2_ii
000000000000dcf8 s L___func__._ZN4QPBOIiE22AddDirectedConstraint1EPNS0_3ArcEii
000000000000db54 s L___func__._ZN4QPBOIiE5ProbeEPi
000000000000da30 s L___func__._ZN4QPBOIiE7AddNodeEi
000000000000dada s L___func__._ZN4QPBOIiE7ImproveEiPiS1_
000000000000da6e s L___func__._ZN4QPBOIiE8GetLabelEi
000000000000db14 s L___func__._ZN4QPBOIiE8GetMate0EPNS0_4NodeE
000000000000db29 s L___func__._ZN4QPBOIiE8GetMate1EPNS0_4NodeE
000000000000da77 s L___func__._ZN4QPBOIiE8SetLabelEii
000000000000dac5 s L___func__._ZN4QPBOIiE9GetRegionEi
000000000000de10 s L_str35
                 U __Unwind_Resume
000000000000d1b0 S __ZN4ListC2EiPi
000000000000f1f0 S __ZN4ListC2EiPi.eh
0000000000008cd0 S __ZN4QPBOIdE10GetNodeNumEv
000000000000ec70 S __ZN4QPBOIdE10GetNodeNumEv.eh
00000000000096b0 S __ZN4QPBOIdE12AddUnaryTermEPNS0_4NodeEdd
000000000000ee38 S __ZN4QPBOIdE12AddUnaryTermEPNS0_4NodeEdd.eh
0000000000008ba0 S __ZN4QPBOIdE12AddUnaryTermEidd
000000000000ebf8 S __ZN4QPBOIdE12AddUnaryTermEidd.eh
                 U __ZN4QPBOIdE12InitFreeListEv
00000000000099d0 S __ZN4QPBOIdE12ProbeOptionsC1Ev
000000000000eee8 S __ZN4QPBOIdE12ProbeOptionsC1Ev.eh
0000000000009990 S __ZN4QPBOIdE12ProbeOptionsC2Ev
000000000000eec0 S __ZN4QPBOIdE12ProbeOptionsC2Ev.eh
00000000000095d0 S __ZN4QPBOIdE12what_segmentEPNS0_4NodeEi
000000000000ed98 S __ZN4QPBOIdE12what_segmentEPNS0_4NodeEi.eh
000000000000bca0 S __ZN4QPBOIdE13ContractNodesEPNS0_4NodeES2_i
000000000000f0e0 S __ZN4QPBOIdE13ContractNodesEPNS0_4NodeES2_i.eh
0000000000008a70 S __ZN4QPBOIdE13GetMaxEdgeNumEv
000000000000eb78 S __ZN4QPBOIdE13GetMaxEdgeNumEv.eh
0000000000008cf0 S __ZN4QPBOIdE13GetNextEdgeIdEi
000000000000ec98 S __ZN4QPBOIdE13GetNextEdgeIdEi.eh
000000000000b8c0 S __ZN4QPBOIdE13MergeMappingsEiPiS1_
000000000000ef78 S __ZN4QPBOIdE13MergeMappingsEiPiS1_.eh
0000000000008a90 S __ZN4QPBOIdE13SetMaxEdgeNumEi
000000000000eba0 S __ZN4QPBOIdE13SetMaxEdgeNumEi.eh
000000000000b910 S __ZN4QPBOIdE14ComputeWeightsEddddRdS1_S1_S1_
000000000000efa0 S __ZN4QPBOIdE14ComputeWeightsEddddRdS1_S1_S1_.eh
                 U __ZN4QPBOIdE15AddPairwiseTermEiidddd
                 U __ZN4QPBOIdE15reallocate_arcsEi
                 U __ZN4QPBOIdE16reallocate_nodesEi
000000000000cb00 S __ZN4QPBOIdE17AllocateNewEnergyEPi
000000000000f1c0 S __ZN4QPBOIdE17AllocateNewEnergyEPi.eh
0000000000008d40 S __ZN4QPBOIdE17GetTwiceUnaryTermEiRdS1_
000000000000ecc0 S __ZN4QPBOIdE17GetTwiceUnaryTermEiRdS1_.eh
000000000000bf20 S __ZN4QPBOIdE18MergeParallelEdgesEPNS0_3ArcES2_
000000000000f108 S __ZN4QPBOIdE18MergeParallelEdgesEPNS0_3ArcES2_.eh
0000000000009630 S __ZN4QPBOIdE19DetermineSaturationEPNS0_4NodeE
000000000000ede8 S __ZN4QPBOIdE19DetermineSaturationEPNS0_4NodeE.eh
0000000000008db0 S __ZN4QPBOIdE20GetTwicePairwiseTermEiRiS1_RdS2_S2_S2_
000000000000ece8 S __ZN4QPBOIdE20GetTwicePairwiseTermEiRiS1_RdS2_S2_S2_.eh
000000000000c980 S __ZN4QPBOIdE21AddDirectedConstraintEPNS0_4NodeES2_ii
000000000000f190 S __ZN4QPBOIdE21AddDirectedConstraintEPNS0_4NodeES2_ii.eh
000000000000c390 S __ZN4QPBOIdE22AddDirectedConstraint0EPNS0_3ArcEii
000000000000f138 S __ZN4QPBOIdE22AddDirectedConstraint0EPNS0_3ArcEii.eh
000000000000c7a0 S __ZN4QPBOIdE22AddDirectedConstraint1EPNS0_3ArcEii
000000000000f168 S __ZN4QPBOIdE22AddDirectedConstraint1EPNS0_3ArcEii.eh
                 U __ZN4QPBOIdE22TransformToSecondStageEb
00000000000098a0 S __ZN4QPBOIdE24ComputeRandomPermutationEiPi
000000000000ee90 S __ZN4QPBOIdE24ComputeRandomPermutationEiPi.eh
                 U __ZN4QPBOIdE24ComputeWeakPersistenciesEv
0000000000009ca0 S __ZN4QPBOIdE5ProbeEPi
000000000000ef40 S __ZN4QPBOIdE5ProbeEPi.eh
0000000000009a10 S __ZN4QPBOIdE5ProbeEPiRNS0_12ProbeOptionsE
000000000000ef10 S __ZN4QPBOIdE5ProbeEPiRNS0_12ProbeOptionsE.eh
                 U __ZN4QPBOIdE5SolveEv
000000000000b9f0 S __ZN4QPBOIdE6IsArc0EPNS0_3ArcE
000000000000f018 S __ZN4QPBOIdE6IsArc0EPNS0_3ArcE.eh
0000000000008ac0 S __ZN4QPBOIdE7AddNodeEi
000000000000ebc8 S __ZN4QPBOIdE7AddNodeEi.eh
000000000000baa0 S __ZN4QPBOIdE7FixNodeEPNS0_4NodeEi
000000000000f0b8 S __ZN4QPBOIdE7FixNodeEPNS0_4NodeEi.eh
000000000000ba80 S __ZN4QPBOIdE7GetMateEPNS0_3ArcE
000000000000f090 S __ZN4QPBOIdE7GetMateEPNS0_3ArcE.eh
000000000000b9d0 S __ZN4QPBOIdE7GetMateEPNS0_4NodeE
000000000000eff0 S __ZN4QPBOIdE7GetMateEPNS0_4NodeE.eh
0000000000008fa0 S __ZN4QPBOIdE7ImproveEiPiS1_
000000000000ed68 S __ZN4QPBOIdE7ImproveEiPiS1_.eh
0000000000009750 S __ZN4QPBOIdE7ImproveEv
000000000000ee60 S __ZN4QPBOIdE7ImproveEv.eh
0000000000008f20 S __ZN4QPBOIdE7IsNode0EPNS0_4NodeE
000000000000ed18 S __ZN4QPBOIdE7IsNode0EPNS0_4NodeE.eh
                 U __ZN4QPBOIdE7maxflowEbb
0000000000008c20 S __ZN4QPBOIdE8GetLabelEi
000000000000ec20 S __ZN4QPBOIdE8GetLabelEi.eh
000000000000ba00 S __ZN4QPBOIdE8GetMate0EPNS0_3ArcE
000000000000f040 S __ZN4QPBOIdE8GetMate0EPNS0_3ArcE.eh
00000000000095f0 S __ZN4QPBOIdE8GetMate0EPNS0_4NodeE
000000000000edc0 S __ZN4QPBOIdE8GetMate0EPNS0_4NodeE.eh
000000000000ba40 S __ZN4QPBOIdE8GetMate1EPNS0_3ArcE
000000000000f068 S __ZN4QPBOIdE8GetMate1EPNS0_3ArcE.eh
000000000000b990 S __ZN4QPBOIdE8GetMate1EPNS0_4NodeE
000000000000efc8 S __ZN4QPBOIdE8GetMate1EPNS0_4NodeE.eh
0000000000008c70 S __ZN4QPBOIdE8SetLabelEii
000000000000ec48 S __ZN4QPBOIdE8SetLabelEii.eh
0000000000008f30 S __ZN4QPBOIdE9GetRegionEi
000000000000ed40 S __ZN4QPBOIdE9GetRegionEi.eh
0000000000009670 S __ZN4QPBOIdE9mark_nodeEPNS0_4NodeE
000000000000ee10 S __ZN4QPBOIdE9mark_nodeEPNS0_4NodeE.eh
00000000000045b0 S __ZN4QPBOIfE10GetNodeNumEv
000000000000e5f8 S __ZN4QPBOIfE10GetNodeNumEv.eh
0000000000004f90 S __ZN4QPBOIfE12AddUnaryTermEPNS0_4NodeEff
000000000000e7c0 S __ZN4QPBOIfE12AddUnaryTermEPNS0_4NodeEff.eh
0000000000004480 S __ZN4QPBOIfE12AddUnaryTermEiff
000000000000e580 S __ZN4QPBOIfE12AddUnaryTermEiff.eh
                 U __ZN4QPBOIfE12InitFreeListEv
00000000000052b0 S __ZN4QPBOIfE12ProbeOptionsC1Ev
000000000000e870 S __ZN4QPBOIfE12ProbeOptionsC1Ev.eh
0000000000005270 S __ZN4QPBOIfE12ProbeOptionsC2Ev
000000000000e848 S __ZN4QPBOIfE12ProbeOptionsC2Ev.eh
0000000000004eb0 S __ZN4QPBOIfE12what_segmentEPNS0_4NodeEi
000000000000e720 S __ZN4QPBOIfE12what_segmentEPNS0_4NodeEi.eh
0000000000007570 S __ZN4QPBOIfE13ContractNodesEPNS0_4NodeES2_i
000000000000ea68 S __ZN4QPBOIfE13ContractNodesEPNS0_4NodeES2_i.eh
0000000000004350 S __ZN4QPBOIfE13GetMaxEdgeNumEv
000000000000e500 S __ZN4QPBOIfE13GetMaxEdgeNumEv.eh
00000000000045d0 S __ZN4QPBOIfE13GetNextEdgeIdEi
000000000000e620 S __ZN4QPBOIfE13GetNextEdgeIdEi.eh
00000000000071a0 S __ZN4QPBOIfE13MergeMappingsEiPiS1_
000000000000e900 S __ZN4QPBOIfE13MergeMappingsEiPiS1_.eh
0000000000004370 S __ZN4QPBOIfE13SetMaxEdgeNumEi
000000000000e528 S __ZN4QPBOIfE13SetMaxEdgeNumEi.eh
00000000000071f0 S __ZN4QPBOIfE14ComputeWeightsEffffRfS1_S1_S1_
000000000000e928 S __ZN4QPBOIfE14ComputeWeightsEffffRfS1_S1_S1_.eh
                 U __ZN4QPBOIfE15AddPairwiseTermEiiffff
                 U __ZN4QPBOIfE15reallocate_arcsEi
                 U __ZN4QPBOIfE16reallocate_nodesEi
00000000000083c0 S __ZN4QPBOIfE17AllocateNewEnergyEPi
000000000000eb48 S __ZN4QPBOIfE17AllocateNewEnergyEPi.eh
0000000000004620 S __ZN4QPBOIfE17GetTwiceUnaryTermEiRfS1_
000000000000e648 S __ZN4QPBOIfE17GetTwiceUnaryTermEiRfS1_.eh
00000000000077f0 S __ZN4QPBOIfE18MergeParallelEdgesEPNS0_3ArcES2_
000000000000ea90 S __ZN4QPBOIfE18MergeParallelEdgesEPNS0_3ArcES2_.eh
0000000000004f10 S __ZN4QPBOIfE19DetermineSaturationEPNS0_4NodeE
000000000000e770 S __ZN4QPBOIfE19DetermineSaturationEPNS0_4NodeE.eh
0000000000004690 S __ZN4QPBOIfE20GetTwicePairwiseTermEiRiS1_RfS2_S2_S2_
000000000000e670 S __ZN4QPBOIfE20GetTwicePairwiseTermEiRiS1_RfS2_S2_S2_.eh
0000000000008240 S __ZN4QPBOIfE21AddDirectedConstraintEPNS0_4NodeES2_ii
000000000000eb18 S __ZN4QPBOIfE21AddDirectedConstraintEPNS0_4NodeES2_ii.eh
0000000000007c60 S __ZN4QPBOIfE22AddDirectedConstraint0EPNS0_3ArcEii
000000000000eac0 S __ZN4QPBOIfE22AddDirectedConstraint0EPNS0_3ArcEii.eh
0000000000008060 S __ZN4QPBOIfE22AddDirectedConstraint1EPNS0_3ArcEii
000000000000eaf0 S __ZN4QPBOIfE22AddDirectedConstraint1EPNS0_3ArcEii.eh
                 U __ZN4QPBOIfE22TransformToSecondStageEb
0000000000005180 S __ZN4QPBOIfE24ComputeRandomPermutationEiPi
000000000000e818 S __ZN4QPBOIfE24ComputeRandomPermutationEiPi.eh
                 U __ZN4QPBOIfE24ComputeWeakPersistenciesEv
0000000000005580 S __ZN4QPBOIfE5ProbeEPi
000000000000e8c8 S __ZN4QPBOIfE5ProbeEPi.eh
00000000000052f0 S __ZN4QPBOIfE5ProbeEPiRNS0_12ProbeOptionsE
000000000000e898 S __ZN4QPBOIfE5ProbeEPiRNS0_12ProbeOptionsE.eh
                 U __ZN4QPBOIfE5SolveEv
00000000000072c0 S __ZN4QPBOIfE6IsArc0EPNS0_3ArcE
000000000000e9a0 S __ZN4QPBOIfE6IsArc0EPNS0_3ArcE.eh
00000000000043a0 S __ZN4QPBOIfE7AddNodeEi
000000000000e550 S __ZN4QPBOIfE7AddNodeEi.eh
0000000000007370 S __ZN4QPBOIfE7FixNodeEPNS0_4NodeEi
000000000000ea40 S __ZN4QPBOIfE7FixNodeEPNS0_4NodeEi.eh
0000000000007350 S __ZN4QPBOIfE7GetMateEPNS0_3ArcE
000000000000ea18 S __ZN4QPBOIfE7GetMateEPNS0_3ArcE.eh
00000000000072a0 S __ZN4QPBOIfE7GetMateEPNS0_4NodeE
000000000000e978 S __ZN4QPBOIfE7GetMateEPNS0_4NodeE.eh
0000000000004880 S __ZN4QPBOIfE7ImproveEiPiS1_
000000000000e6f0 S __ZN4QPBOIfE7ImproveEiPiS1_.eh
0000000000005030 S __ZN4QPBOIfE7ImproveEv
000000000000e7e8 S __ZN4QPBOIfE7ImproveEv.eh
0000000000004800 S __ZN4QPBOIfE7IsNode0EPNS0_4NodeE
000000000000e6a0 S __ZN4QPBOIfE7IsNode0EPNS0_4NodeE.eh
                 U __ZN4QPBOIfE7maxflowEbb
0000000000004500 S __ZN4QPBOIfE8GetLabelEi
000000000000e5a8 S __ZN4QPBOIfE8GetLabelEi.eh
00000000000072d0 S __ZN4QPBOIfE8GetMate0EPNS0_3ArcE
000000000000e9c8 S __ZN4QPBOIfE8GetMate0EPNS0_3ArcE.eh
0000000000004ed0 S __ZN4QPBOIfE8GetMate0EPNS0_4NodeE
000000000000e748 S __ZN4QPBOIfE8GetMate0EPNS0_4NodeE.eh
0000000000007310 S __ZN4QPBOIfE8GetMate1EPNS0_3ArcE
000000000000e9f0 S __ZN4QPBOIfE8GetMate1EPNS0_3ArcE.eh
0000000000007260 S __ZN4QPBOIfE8GetMate1EPNS0_4NodeE
000000000000e950 S __ZN4QPBOIfE8GetMate1EPNS0_4NodeE.eh
0000000000004550 S __ZN4QPBOIfE8SetLabelEii
000000000000e5d0 S __ZN4QPBOIfE8SetLabelEii.eh
0000000000004810 S __ZN4QPBOIfE9GetRegionEi
000000000000e6c8 S __ZN4QPBOIfE9GetRegionEi.eh
0000000000004f50 S __ZN4QPBOIfE9mark_nodeEPNS0_4NodeE
000000000000e798 S __ZN4QPBOIfE9mark_nodeEPNS0_4NodeE.eh
0000000000000240 S __ZN4QPBOIiE10GetNodeNumEv
000000000000df60 S __ZN4QPBOIiE10GetNodeNumEv.eh
0000000000000c40 S __ZN4QPBOIiE12AddUnaryTermEPNS0_4NodeEii
000000000000e128 S __ZN4QPBOIiE12AddUnaryTermEPNS0_4NodeEii.eh
0000000000000130 S __ZN4QPBOIiE12AddUnaryTermEiii
000000000000dee8 S __ZN4QPBOIiE12AddUnaryTermEiii.eh
                 U __ZN4QPBOIiE12InitFreeListEv
0000000000000f40 S __ZN4QPBOIiE12ProbeOptionsC1Ev
000000000000e1d8 S __ZN4QPBOIiE12ProbeOptionsC1Ev.eh
0000000000000f00 S __ZN4QPBOIiE12ProbeOptionsC2Ev
000000000000e1b0 S __ZN4QPBOIiE12ProbeOptionsC2Ev.eh
0000000000000b70 S __ZN4QPBOIiE12what_segmentEPNS0_4NodeEi
000000000000e088 S __ZN4QPBOIiE12what_segmentEPNS0_4NodeEi.eh
0000000000003110 S __ZN4QPBOIiE13ContractNodesEPNS0_4NodeES2_i
000000000000e3f0 S __ZN4QPBOIiE13ContractNodesEPNS0_4NodeES2_i.eh
0000000000000000 S __ZN4QPBOIiE13GetMaxEdgeNumEv
000000000000de68 S __ZN4QPBOIiE13GetMaxEdgeNumEv.eh
0000000000000260 S __ZN4QPBOIiE13GetNextEdgeIdEi
000000000000df88 S __ZN4QPBOIiE13GetNextEdgeIdEi.eh
0000000000002d60 S __ZN4QPBOIiE13MergeMappingsEiPiS1_
000000000000e288 S __ZN4QPBOIiE13MergeMappingsEiPiS1_.eh
0000000000000020 S __ZN4QPBOIiE13SetMaxEdgeNumEi
000000000000de90 S __ZN4QPBOIiE13SetMaxEdgeNumEi.eh
0000000000002db0 S __ZN4QPBOIiE14ComputeWeightsEiiiiRiS1_S1_S1_
000000000000e2b0 S __ZN4QPBOIiE14ComputeWeightsEiiiiRiS1_S1_S1_.eh
                 U __ZN4QPBOIiE15AddPairwiseTermEiiiiii
                 U __ZN4QPBOIiE15reallocate_arcsEi
                 U __ZN4QPBOIiE16reallocate_nodesEi
0000000000003cf0 S __ZN4QPBOIiE17AllocateNewEnergyEPi
000000000000e4d0 S __ZN4QPBOIiE17AllocateNewEnergyEPi.eh
00000000000002b0 S __ZN4QPBOIiE17GetTwiceUnaryTermEiRiS1_
000000000000dfb0 S __ZN4QPBOIiE17GetTwiceUnaryTermEiRiS1_.eh
0000000000003370 S __ZN4QPBOIiE18MergeParallelEdgesEPNS0_3ArcES2_
000000000000e418 S __ZN4QPBOIiE18MergeParallelEdgesEPNS0_3ArcES2_.eh
0000000000000bd0 S __ZN4QPBOIiE19DetermineSaturationEPNS0_4NodeE
000000000000e0d8 S __ZN4QPBOIiE19DetermineSaturationEPNS0_4NodeE.eh
0000000000000320 S __ZN4QPBOIiE20GetTwicePairwiseTermEiRiS1_S1_S1_S1_S1_
000000000000dfd8 S __ZN4QPBOIiE20GetTwicePairwiseTermEiRiS1_S1_S1_S1_S1_.eh
0000000000003b80 S __ZN4QPBOIiE21AddDirectedConstraintEPNS0_4NodeES2_ii
000000000000e4a0 S __ZN4QPBOIiE21AddDirectedConstraintEPNS0_4NodeES2_ii.eh
00000000000036e0 S __ZN4QPBOIiE22AddDirectedConstraint0EPNS0_3ArcEii
000000000000e448 S __ZN4QPBOIiE22AddDirectedConstraint0EPNS0_3ArcEii.eh
00000000000039e0 S __ZN4QPBOIiE22AddDirectedConstraint1EPNS0_3ArcEii
000000000000e478 S __ZN4QPBOIiE22AddDirectedConstraint1EPNS0_3ArcEii.eh
                 U __ZN4QPBOIiE22TransformToSecondStageEb
0000000000000e10 S __ZN4QPBOIiE24ComputeRandomPermutationEiPi
000000000000e180 S __ZN4QPBOIiE24ComputeRandomPermutationEiPi.eh
                 U __ZN4QPBOIiE24ComputeWeakPersistenciesEv
00000000000011d0 S __ZN4QPBOIiE5ProbeEPi
000000000000e250 S __ZN4QPBOIiE5ProbeEPi.eh
0000000000000f80 S __ZN4QPBOIiE5ProbeEPiRNS0_12ProbeOptionsE
000000000000e200 S __ZN4QPBOIiE5ProbeEPiRNS0_12ProbeOptionsE.eh
                 U __ZN4QPBOIiE5SolveEv
0000000000002e70 S __ZN4QPBOIiE6IsArc0EPNS0_3ArcE
000000000000e328 S __ZN4QPBOIiE6IsArc0EPNS0_3ArcE.eh
0000000000000050 S __ZN4QPBOIiE7AddNodeEi
000000000000deb8 S __ZN4QPBOIiE7AddNodeEi.eh
0000000000002f20 S __ZN4QPBOIiE7FixNodeEPNS0_4NodeEi
000000000000e3c8 S __ZN4QPBOIiE7FixNodeEPNS0_4NodeEi.eh
0000000000002f00 S __ZN4QPBOIiE7GetMateEPNS0_3ArcE
000000000000e3a0 S __ZN4QPBOIiE7GetMateEPNS0_3ArcE.eh
0000000000002e50 S __ZN4QPBOIiE7GetMateEPNS0_4NodeE
000000000000e300 S __ZN4QPBOIiE7GetMateEPNS0_4NodeE.eh
00000000000004f0 S __ZN4QPBOIiE7ImproveEiPiS1_
000000000000e058 S __ZN4QPBOIiE7ImproveEiPiS1_.eh
0000000000000cc0 S __ZN4QPBOIiE7ImproveEv
000000000000e150 S __ZN4QPBOIiE7ImproveEv.eh
0000000000000470 S __ZN4QPBOIiE7IsNode0EPNS0_4NodeE
000000000000e008 S __ZN4QPBOIiE7IsNode0EPNS0_4NodeE.eh
                 U __ZN4QPBOIiE7maxflowEbb
0000000000000190 S __ZN4QPBOIiE8GetLabelEi
000000000000df10 S __ZN4QPBOIiE8GetLabelEi.eh
0000000000002e80 S __ZN4QPBOIiE8GetMate0EPNS0_3ArcE
000000000000e350 S __ZN4QPBOIiE8GetMate0EPNS0_3ArcE.eh
0000000000000b90 S __ZN4QPBOIiE8GetMate0EPNS0_4NodeE
000000000000e0b0 S __ZN4QPBOIiE8GetMate0EPNS0_4NodeE.eh
0000000000002ec0 S __ZN4QPBOIiE8GetMate1EPNS0_3ArcE
000000000000e378 S __ZN4QPBOIiE8GetMate1EPNS0_3ArcE.eh
0000000000002e10 S __ZN4QPBOIiE8GetMate1EPNS0_4NodeE
000000000000e2d8 S __ZN4QPBOIiE8GetMate1EPNS0_4NodeE.eh
00000000000001e0 S __ZN4QPBOIiE8SetLabelEii
000000000000df38 S __ZN4QPBOIiE8SetLabelEii.eh
0000000000000480 S __ZN4QPBOIiE9GetRegionEi
000000000000e030 S __ZN4QPBOIiE9GetRegionEi.eh
0000000000000c00 S __ZN4QPBOIiE9mark_nodeEPNS0_4NodeE
000000000000e100 S __ZN4QPBOIiE9mark_nodeEPNS0_4NodeE.eh
                 U __ZdaPv
                 U __ZdlPv
                 U __Znam
                 U __Znwm
                 U ___assert_rtn
                 U ___bzero
                 U ___gxx_personality_v0
                 U ___stack_chk_fail
                 U ___stack_chk_guard
                 U _puts
                 U _rand
                 U _srand

libQPBO.a(QPBO_maxflow.o):
00000000000091a8 s EH_frame0
0000000000008168 s L_.str
0000000000008171 s L_.str1
0000000000008283 s L_.str10
00000000000082a5 s L_.str11
00000000000082b6 s L_.str12
0000000000008302 s L_.str13
0000000000008315 s L_.str14
0000000000008327 s L_.str15
0000000000008334 s L_.str16
0000000000008342 s L_.str17
0000000000008350 s L_.str18
000000000000836d s L_.str19
0000000000008187 s L_.str2
0000000000008382 s L_.str20
0000000000008391 s L_.str21
00000000000083b6 s L_.str22
00000000000083c5 s L_.str23
00000000000083e9 s L_.str24
0000000000008406 s L_.str25
00000000000081d7 s L_.str3
00000000000081ff s L_.str4
0000000000008213 s L_.str5
0000000000008228 s L_.str6
0000000000008234 s L_.str7
000000000000823f s L_.str8
000000000000824a s L_.str9
000000000000817a s L___func__._ZN4QPBOIiE12AddUnaryTermEiii
0000000000008294 s L___func__._ZN4QPBOIiE16test_consistencyEPNS0_4NodeE
00000000000081b0 s L___func__._ZN4QPBOIiE17GetTwiceUnaryTermEiRiS1_
00000000000081c2 s L___func__._ZN4QPBOIiE20GetTwicePairwiseTermEiRiS1_S1_S1_S1_S1_
000000000000826a s L___func__._ZN4QPBOIiE24maxflow_reuse_trees_initEv
0000000000008160 s L___func__._ZN4QPBOIiE7AddNodeEi
000000000000819e s L___func__._ZN4QPBOIiE8GetLabelEi
000000000000820a s L___func__._ZN4QPBOIiE8GetMate0EPNS0_4NodeE
000000000000821f s L___func__._ZN4QPBOIiE8GetMate1EPNS0_4NodeE
00000000000081a7 s L___func__._ZN4QPBOIiE8SetLabelEii
00000000000081f5 s L___func__._ZN4QPBOIiE9GetRegionEi
0000000000005760 S __ZN4QPBOIdE10GetNodeNumEv
0000000000009e80 S __ZN4QPBOIdE10GetNodeNumEv.eh
0000000000005d20 S __ZN4QPBOIdE10set_activeEPNS0_4NodeE
000000000000a130 S __ZN4QPBOIdE10set_activeEPNS0_4NodeE.eh
0000000000005d60 S __ZN4QPBOIdE11next_activeEv
000000000000a158 S __ZN4QPBOIdE11next_activeEv.eh
0000000000005c80 S __ZN4QPBOIdE12AddUnaryTermEPNS0_4NodeEdd
000000000000a108 S __ZN4QPBOIdE12AddUnaryTermEPNS0_4NodeEdd.eh
0000000000005630 S __ZN4QPBOIdE12AddUnaryTermEidd
0000000000009e08 S __ZN4QPBOIdE12AddUnaryTermEidd.eh
0000000000005a70 S __ZN4QPBOIdE12ProbeOptionsC1Ev
0000000000009fa0 S __ZN4QPBOIdE12ProbeOptionsC1Ev.eh
0000000000005a30 S __ZN4QPBOIdE12ProbeOptionsC2Ev
0000000000009f78 S __ZN4QPBOIdE12ProbeOptionsC2Ev.eh
0000000000006f50 S __ZN4QPBOIdE12maxflow_initEv
000000000000a298 S __ZN4QPBOIdE12maxflow_initEv.eh
0000000000007c10 S __ZN4QPBOIdE12what_segmentEPNS0_4NodeEi
000000000000a350 S __ZN4QPBOIdE12what_segmentEPNS0_4NodeEi.eh
0000000000005530 S __ZN4QPBOIdE13GetMaxEdgeNumEv
0000000000009db0 S __ZN4QPBOIdE13GetMaxEdgeNumEv.eh
0000000000005780 S __ZN4QPBOIdE13GetNextEdgeIdEi
0000000000009ea8 S __ZN4QPBOIdE13GetNextEdgeIdEi.eh
0000000000005ab0 S __ZN4QPBOIdE14ComputeWeightsEddddRdS1_S1_S1_
0000000000009fc8 S __ZN4QPBOIdE14ComputeWeightsEddddRdS1_S1_S1_.eh
0000000000005ec0 S __ZN4QPBOIdE15set_orphan_rearEPNS0_4NodeE
000000000000a1b0 S __ZN4QPBOIdE15set_orphan_rearEPNS0_4NodeE.eh
                 U __ZN4QPBOIdE16reallocate_nodesEi
0000000000005df0 S __ZN4QPBOIdE16set_orphan_frontEPNS0_4NodeE
000000000000a180 S __ZN4QPBOIdE16set_orphan_frontEPNS0_4NodeE.eh
0000000000007c30 S __ZN4QPBOIdE16test_consistencyEPNS0_4NodeE
000000000000a378 S __ZN4QPBOIdE16test_consistencyEPNS0_4NodeE.eh
00000000000057d0 S __ZN4QPBOIdE17GetTwiceUnaryTermEiRdS1_
0000000000009ed0 S __ZN4QPBOIdE17GetTwiceUnaryTermEiRdS1_.eh
0000000000005fe0 S __ZN4QPBOIdE19add_to_changed_listEPNS0_4NodeE
000000000000a208 S __ZN4QPBOIdE19add_to_changed_listEPNS0_4NodeE.eh
0000000000007520 S __ZN4QPBOIdE19process_sink_orphanEPNS0_4NodeE
000000000000a2f0 S __ZN4QPBOIdE19process_sink_orphanEPNS0_4NodeE.eh
0000000000005840 S __ZN4QPBOIdE20GetTwicePairwiseTermEiRiS1_RdS2_S2_S2_
0000000000009ef8 S __ZN4QPBOIdE20GetTwicePairwiseTermEiRiS1_RdS2_S2_S2_.eh
0000000000007890 S __ZN4QPBOIdE21process_source_orphanEPNS0_4NodeE
000000000000a320 S __ZN4QPBOIdE21process_source_orphanEPNS0_4NodeE.eh
00000000000067f0 S __ZN4QPBOIdE24maxflow_reuse_trees_initEv
000000000000a268 S __ZN4QPBOIdE24maxflow_reuse_trees_initEv.eh
0000000000005bd0 S __ZN4QPBOIdE6IsArc0EPNS0_3ArcE
000000000000a068 S __ZN4QPBOIdE6IsArc0EPNS0_3ArcE.eh
0000000000005550 S __ZN4QPBOIdE7AddNodeEi
0000000000009dd8 S __ZN4QPBOIdE7AddNodeEi.eh
0000000000005c60 S __ZN4QPBOIdE7GetMateEPNS0_3ArcE
000000000000a0e0 S __ZN4QPBOIdE7GetMateEPNS0_3ArcE.eh
0000000000005bb0 S __ZN4QPBOIdE7GetMateEPNS0_4NodeE
000000000000a040 S __ZN4QPBOIdE7GetMateEPNS0_4NodeE.eh
00000000000059b0 S __ZN4QPBOIdE7IsNode0EPNS0_4NodeE
0000000000009f28 S __ZN4QPBOIdE7IsNode0EPNS0_4NodeE.eh
0000000000007080 S __ZN4QPBOIdE7augmentEPNS0_3ArcE
000000000000a2c0 S __ZN4QPBOIdE7augmentEPNS0_3ArcE.eh
00000000000060b0 S __ZN4QPBOIdE7maxflowEbb
000000000000a238 S __ZN4QPBOIdE7maxflowEbb.eh
00000000000056b0 S __ZN4QPBOIdE8GetLabelEi
0000000000009e30 S __ZN4QPBOIdE8GetLabelEi.eh
0000000000005be0 S __ZN4QPBOIdE8GetMate0EPNS0_3ArcE
000000000000a090 S __ZN4QPBOIdE8GetMate0EPNS0_3ArcE.eh
0000000000005b30 S __ZN4QPBOIdE8GetMate0EPNS0_4NodeE
0000000000009ff0 S __ZN4QPBOIdE8GetMate0EPNS0_4NodeE.eh
0000000000005c20 S __ZN4QPBOIdE8GetMate1EPNS0_3ArcE
000000000000a0b8 S __ZN4QPBOIdE8GetMate1EPNS0_3ArcE.eh
0000000000005b70 S __ZN4QPBOIdE8GetMate1EPNS0_4NodeE
000000000000a018 S __ZN4QPBOIdE8GetMate1EPNS0_4NodeE.eh
0000000000005700 S __ZN4QPBOIdE8SetLabelEii
0000000000009e58 S __ZN4QPBOIdE8SetLabelEii.eh
00000000000059c0 S __ZN4QPBOIdE9GetRegionEi
0000000000009f50 S __ZN4QPBOIdE9GetRegionEi.eh
0000000000005fa0 S __ZN4QPBOIdE9mark_nodeEPNS0_4NodeE
000000000000a1e0 S __ZN4QPBOIdE9mark_nodeEPNS0_4NodeE.eh
0000000000002bc0 S __ZN4QPBOIfE10GetNodeNumEv
0000000000009888 S __ZN4QPBOIfE10GetNodeNumEv.eh
0000000000003170 S __ZN4QPBOIfE10set_activeEPNS0_4NodeE
0000000000009b38 S __ZN4QPBOIfE10set_activeEPNS0_4NodeE.eh
00000000000031b0 S __ZN4QPBOIfE11next_activeEv
0000000000009b60 S __ZN4QPBOIfE11next_activeEv.eh
00000000000030d0 S __ZN4QPBOIfE12AddUnaryTermEPNS0_4NodeEff
0000000000009b10 S __ZN4QPBOIfE12AddUnaryTermEPNS0_4NodeEff.eh
0000000000002a90 S __ZN4QPBOIfE12AddUnaryTermEiff
0000000000009810 S __ZN4QPBOIfE12AddUnaryTermEiff.eh
0000000000002ed0 S __ZN4QPBOIfE12ProbeOptionsC1Ev
00000000000099a8 S __ZN4QPBOIfE12ProbeOptionsC1Ev.eh
0000000000002e90 S __ZN4QPBOIfE12ProbeOptionsC2Ev
0000000000009980 S __ZN4QPBOIfE12ProbeOptionsC2Ev.eh
0000000000004380 S __ZN4QPBOIfE12maxflow_initEv
0000000000009ca0 S __ZN4QPBOIfE12maxflow_initEv.eh
0000000000005030 S __ZN4QPBOIfE12what_segmentEPNS0_4NodeEi
0000000000009d58 S __ZN4QPBOIfE12what_segmentEPNS0_4NodeEi.eh
0000000000002990 S __ZN4QPBOIfE13GetMaxEdgeNumEv
00000000000097b8 S __ZN4QPBOIfE13GetMaxEdgeNumEv.eh
0000000000002be0 S __ZN4QPBOIfE13GetNextEdgeIdEi
00000000000098b0 S __ZN4QPBOIfE13GetNextEdgeIdEi.eh
0000000000002f10 S __ZN4QPBOIfE14ComputeWeightsEffffRfS1_S1_S1_
00000000000099d0 S __ZN4QPBOIfE14ComputeWeightsEffffRfS1_S1_S1_.eh
0000000000003310 S __ZN4QPBOIfE15set_orphan_rearEPNS0_4NodeE
0000000000009bb8 S __ZN4QPBOIfE15set_orphan_rearEPNS0_4NodeE.eh
                 U __ZN4QPBOIfE16reallocate_nodesEi
0000000000003240 S __ZN4QPBOIfE16set_orphan_frontEPNS0_4NodeE
0000000000009b88 S __ZN4QPBOIfE16set_orphan_frontEPNS0_4NodeE.eh
0000000000005050 S __ZN4QPBOIfE16test_consistencyEPNS0_4NodeE
0000000000009d80 S __ZN4QPBOIfE16test_consistencyEPNS0_4NodeE.eh
0000000000002c30 S __ZN4QPBOIfE17GetTwiceUnaryTermEiRfS1_
00000000000098d8 S __ZN4QPBOIfE17GetTwiceUnaryTermEiRfS1_.eh
0000000000003430 S __ZN4QPBOIfE19add_to_changed_listEPNS0_4NodeE
0000000000009c10 S __ZN4QPBOIfE19add_to_changed_listEPNS0_4NodeE.eh
0000000000004950 S __ZN4QPBOIfE19process_sink_orphanEPNS0_4NodeE
0000000000009cf8 S __ZN4QPBOIfE19process_sink_orphanEPNS0_4NodeE.eh
0000000000002ca0 S __ZN4QPBOIfE20GetTwicePairwiseTermEiRiS1_RfS2_S2_S2_
0000000000009900 S __ZN4QPBOIfE20GetTwicePairwiseTermEiRiS1_RfS2_S2_S2_.eh
0000000000004cc0 S __ZN4QPBOIfE21process_source_orphanEPNS0_4NodeE
0000000000009d28 S __ZN4QPBOIfE21process_source_orphanEPNS0_4NodeE.eh
0000000000003c30 S __ZN4QPBOIfE24maxflow_reuse_trees_initEv
0000000000009c70 S __ZN4QPBOIfE24maxflow_reuse_trees_initEv.eh
0000000000003020 S __ZN4QPBOIfE6IsArc0EPNS0_3ArcE
0000000000009a70 S __ZN4QPBOIfE6IsArc0EPNS0_3ArcE.eh
00000000000029b0 S __ZN4QPBOIfE7AddNodeEi
00000000000097e0 S __ZN4QPBOIfE7AddNodeEi.eh
00000000000030b0 S __ZN4QPBOIfE7GetMateEPNS0_3ArcE
0000000000009ae8 S __ZN4QPBOIfE7GetMateEPNS0_3ArcE.eh
0000000000003000 S __ZN4QPBOIfE7GetMateEPNS0_4NodeE
0000000000009a48 S __ZN4QPBOIfE7GetMateEPNS0_4NodeE.eh
0000000000002e10 S __ZN4QPBOIfE7IsNode0EPNS0_4NodeE
0000000000009930 S __ZN4QPBOIfE7IsNode0EPNS0_4NodeE.eh
00000000000044b0 S __ZN4QPBOIfE7augmentEPNS0_3ArcE
0000000000009cc8 S __ZN4QPBOIfE7augmentEPNS0_3ArcE.eh
0000000000003500 S __ZN4QPBOIfE7maxflowEbb
0000000000009c40 S __ZN4QPBOIfE7maxflowEbb.eh
0000000000002b10 S __ZN4QPBOIfE8GetLabelEi
0000000000009838 S __ZN4QPBOIfE8GetLabelEi.eh
0000000000003030 S __ZN4QPBOIfE8GetMate0EPNS0_3ArcE
0000000000009a98 S __ZN4QPBOIfE8GetMate0EPNS0_3ArcE.eh
0000000000002f80 S __ZN4QPBOIfE8GetMate0EPNS0_4NodeE
00000000000099f8 S __ZN4QPBOIfE8GetMate0EPNS0_4NodeE.eh
0000000000003070 S __ZN4QPBOIfE8GetMate1EPNS0_3ArcE
0000000000009ac0 S __ZN4QPBOIfE8GetMate1EPNS0_3ArcE.eh
0000000000002fc0 S __ZN4QPBOIfE8GetMate1EPNS0_4NodeE
0000000000009a20 S __ZN4QPBOIfE8GetMate1EPNS0_4NodeE.eh
0000000000002b60 S __ZN4QPBOIfE8SetLabelEii
0000000000009860 S __ZN4QPBOIfE8SetLabelEii.eh
0000000000002e20 S __ZN4QPBOIfE9GetRegionEi
0000000000009958 S __ZN4QPBOIfE9GetRegionEi.eh
00000000000033f0 S __ZN4QPBOIfE9mark_nodeEPNS0_4NodeE
0000000000009be8 S __ZN4QPBOIfE9mark_nodeEPNS0_4NodeE.eh
0000000000000210 S __ZN4QPBOIiE10GetNodeNumEv
0000000000009290 S __ZN4QPBOIiE10GetNodeNumEv.eh
0000000000000770 S __ZN4QPBOIiE10set_activeEPNS0_4NodeE
0000000000009540 S __ZN4QPBOIiE10set_activeEPNS0_4NodeE.eh
00000000000007b0 S __ZN4QPBOIiE11next_activeEv
0000000000009568 S __ZN4QPBOIiE11next_activeEv.eh
00000000000006f0 S __ZN4QPBOIiE12AddUnaryTermEPNS0_4NodeEii
0000000000009518 S __ZN4QPBOIiE12AddUnaryTermEPNS0_4NodeEii.eh
0000000000000100 S __ZN4QPBOIiE12AddUnaryTermEiii
0000000000009218 S __ZN4QPBOIiE12AddUnaryTermEiii.eh
0000000000000500 S __ZN4QPBOIiE12ProbeOptionsC1Ev
00000000000093b0 S __ZN4QPBOIiE12ProbeOptionsC1Ev.eh
00000000000004c0 S __ZN4QPBOIiE12ProbeOptionsC2Ev
0000000000009388 S __ZN4QPBOIiE12ProbeOptionsC2Ev.eh
0000000000001930 S __ZN4QPBOIiE12maxflow_initEv
00000000000096a8 S __ZN4QPBOIiE12maxflow_initEv.eh
00000000000024b0 S __ZN4QPBOIiE12what_segmentEPNS0_4NodeEi
0000000000009760 S __ZN4QPBOIiE12what_segmentEPNS0_4NodeEi.eh
0000000000000000 S __ZN4QPBOIiE13GetMaxEdgeNumEv
00000000000091c0 S __ZN4QPBOIiE13GetMaxEdgeNumEv.eh
0000000000000230 S __ZN4QPBOIiE13GetNextEdgeIdEi
00000000000092b8 S __ZN4QPBOIiE13GetNextEdgeIdEi.eh
0000000000000540 S __ZN4QPBOIiE14ComputeWeightsEiiiiRiS1_S1_S1_
00000000000093d8 S __ZN4QPBOIiE14ComputeWeightsEiiiiRiS1_S1_S1_.eh
0000000000000910 S __ZN4QPBOIiE15set_orphan_rearEPNS0_4NodeE
00000000000095c0 S __ZN4QPBOIiE15set_orphan_rearEPNS0_4NodeE.eh
                 U __ZN4QPBOIiE16reallocate_nodesEi
0000000000000840 S __ZN4QPBOIiE16set_orphan_frontEPNS0_4NodeE
0000000000009590 S __ZN4QPBOIiE16set_orphan_frontEPNS0_4NodeE.eh
00000000000024d0 S __ZN4QPBOIiE16test_consistencyEPNS0_4NodeE
0000000000009788 S __ZN4QPBOIiE16test_consistencyEPNS0_4NodeE.eh
0000000000000280 S __ZN4QPBOIiE17GetTwiceUnaryTermEiRiS1_
00000000000092e0 S __ZN4QPBOIiE17GetTwiceUnaryTermEiRiS1_.eh
0000000000000a30 S __ZN4QPBOIiE19add_to_changed_listEPNS0_4NodeE
0000000000009618 S __ZN4QPBOIiE19add_to_changed_listEPNS0_4NodeE.eh
0000000000001e20 S __ZN4QPBOIiE19process_sink_orphanEPNS0_4NodeE
0000000000009700 S __ZN4QPBOIiE19process_sink_orphanEPNS0_4NodeE.eh
00000000000002f0 S __ZN4QPBOIiE20GetTwicePairwiseTermEiRiS1_S1_S1_S1_S1_
0000000000009308 S __ZN4QPBOIiE20GetTwicePairwiseTermEiRiS1_S1_S1_S1_S1_.eh
0000000000002160 S __ZN4QPBOIiE21process_source_orphanEPNS0_4NodeE
0000000000009730 S __ZN4QPBOIiE21process_source_orphanEPNS0_4NodeE.eh
00000000000011e0 S __ZN4QPBOIiE24maxflow_reuse_trees_initEv
0000000000009678 S __ZN4QPBOIiE24maxflow_reuse_trees_initEv.eh
0000000000000640 S __ZN4QPBOIiE6IsArc0EPNS0_3ArcE
0000000000009478 S __ZN4QPBOIiE6IsArc0EPNS0_3ArcE.eh
0000000000000020 S __ZN4QPBOIiE7AddNodeEi
00000000000091e8 S __ZN4QPBOIiE7AddNodeEi.eh
00000000000006d0 S __ZN4QPBOIiE7GetMateEPNS0_3ArcE
00000000000094f0 S __ZN4QPBOIiE7GetMateEPNS0_3ArcE.eh
0000000000000620 S __ZN4QPBOIiE7GetMateEPNS0_4NodeE
0000000000009450 S __ZN4QPBOIiE7GetMateEPNS0_4NodeE.eh
0000000000000440 S __ZN4QPBOIiE7IsNode0EPNS0_4NodeE
0000000000009338 S __ZN4QPBOIiE7IsNode0EPNS0_4NodeE.eh
0000000000001a40 S __ZN4QPBOIiE7augmentEPNS0_3ArcE
00000000000096d0 S __ZN4QPBOIiE7augmentEPNS0_3ArcE.eh
0000000000000b00 S __ZN4QPBOIiE7maxflowEbb
0000000000009648 S __ZN4QPBOIiE7maxflowEbb.eh
0000000000000160 S __ZN4QPBOIiE8GetLabelEi
0000000000009240 S __ZN4QPBOIiE8GetLabelEi.eh
0000000000000650 S __ZN4QPBOIiE8GetMate0EPNS0_3ArcE
00000000000094a0 S __ZN4QPBOIiE8GetMate0EPNS0_3ArcE.eh
00000000000005a0 S __ZN4QPBOIiE8GetMate0EPNS0_4NodeE
0000000000009400 S __ZN4QPBOIiE8GetMate0EPNS0_4NodeE.eh
0000000000000690 S __ZN4QPBOIiE8GetMate1EPNS0_3ArcE
00000000000094c8 S __ZN4QPBOIiE8GetMate1EPNS0_3ArcE.eh
00000000000005e0 S __ZN4QPBOIiE8GetMate1EPNS0_4NodeE
0000000000009428 S __ZN4QPBOIiE8GetMate1EPNS0_4NodeE.eh
00000000000001b0 S __ZN4QPBOIiE8SetLabelEii
0000000000009268 S __ZN4QPBOIiE8SetLabelEii.eh
0000000000000450 S __ZN4QPBOIiE9GetRegionEi
0000000000009360 S __ZN4QPBOIiE9GetRegionEi.eh
00000000000009f0 S __ZN4QPBOIiE9mark_nodeEPNS0_4NodeE
00000000000095f0 S __ZN4QPBOIiE9mark_nodeEPNS0_4NodeE.eh
                 U __ZdaPv
                 U __ZdlPv
                 U __Znam
                 U __Znwm
                 U ___assert_rtn
                 U ___bzero

libQPBO.a(QPBO_postprocessing.o):
0000000000003018 s EH_frame0
00000000000024e8 s L_.str
00000000000024f1 s L_.str1
0000000000002612 s L_.str10
000000000000261e s L_.str11
0000000000002629 s L_.str12
0000000000002634 s L_.str13
0000000000002507 s L_.str2
0000000000002557 s L_.str3
000000000000258e s L_.str4
00000000000025a6 s L_.str5
00000000000025c2 s L_.str6
00000000000025d0 s L_.str7
00000000000025e9 s L_.str8
00000000000025fd s L_.str9
00000000000024fa s L___func__._ZN4QPBOIiE12AddUnaryTermEiii
0000000000002530 s L___func__._ZN4QPBOIiE17GetTwiceUnaryTermEiRiS1_
0000000000002542 s L___func__._ZN4QPBOIiE20GetTwicePairwiseTermEiRiS1_S1_S1_S1_S1_
0000000000002575 s L___func__._ZN4QPBOIiE24ComputeWeakPersistenciesEv
00000000000024e0 s L___func__._ZN4QPBOIiE7AddNodeEi
000000000000251e s L___func__._ZN4QPBOIiE8GetLabelEi
00000000000025f4 s L___func__._ZN4QPBOIiE8GetMate0EPNS0_4NodeE
0000000000002609 s L___func__._ZN4QPBOIiE8GetMate1EPNS0_4NodeE
0000000000002527 s L___func__._ZN4QPBOIiE8SetLabelEii
00000000000025df s L___func__._ZN4QPBOIiE9GetRegionEi
0000000000001a60 S __ZN4QPBOIdE10GetNodeNumEv
0000000000003940 S __ZN4QPBOIdE10GetNodeNumEv.eh
00000000000023a0 S __ZN4QPBOIdE12AddUnaryTermEPNS0_4NodeEdd
0000000000003c18 S __ZN4QPBOIdE12AddUnaryTermEPNS0_4NodeEdd.eh
0000000000001930 S __ZN4QPBOIdE12AddUnaryTermEidd
00000000000038c8 S __ZN4QPBOIdE12AddUnaryTermEidd.eh
0000000000002210 S __ZN4QPBOIdE12ProbeOptionsC1Ev
0000000000003b00 S __ZN4QPBOIdE12ProbeOptionsC1Ev.eh
00000000000021d0 S __ZN4QPBOIdE12ProbeOptionsC2Ev
0000000000003ad8 S __ZN4QPBOIdE12ProbeOptionsC2Ev.eh
0000000000002480 S __ZN4QPBOIdE12what_segmentEPNS0_4NodeEi
0000000000003c68 S __ZN4QPBOIdE12what_segmentEPNS0_4NodeEi.eh
0000000000001830 S __ZN4QPBOIdE13GetMaxEdgeNumEv
0000000000003870 S __ZN4QPBOIdE13GetMaxEdgeNumEv.eh
0000000000001a80 S __ZN4QPBOIdE13GetNextEdgeIdEi
0000000000003968 S __ZN4QPBOIdE13GetNextEdgeIdEi.eh
0000000000002250 S __ZN4QPBOIdE14ComputeWeightsEddddRdS1_S1_S1_
0000000000003b28 S __ZN4QPBOIdE14ComputeWeightsEddddRdS1_S1_S1_.eh
                 U __ZN4QPBOIdE16reallocate_nodesEi
0000000000001ad0 S __ZN4QPBOIdE17GetTwiceUnaryTermEiRdS1_
0000000000003990 S __ZN4QPBOIdE17GetTwiceUnaryTermEiRdS1_.eh
0000000000001b40 S __ZN4QPBOIdE20GetTwicePairwiseTermEiRiS1_RdS2_S2_S2_
00000000000039b8 S __ZN4QPBOIdE20GetTwicePairwiseTermEiRiS1_RdS2_S2_S2_.eh
0000000000001cc0 S __ZN4QPBOIdE24ComputeWeakPersistenciesEv
0000000000003a10 S __ZN4QPBOIdE24ComputeWeakPersistenciesEv.eh
00000000000022f0 S __ZN4QPBOIdE6IsArc0EPNS0_3ArcE
0000000000003b78 S __ZN4QPBOIdE6IsArc0EPNS0_3ArcE.eh
0000000000002000 S __ZN4QPBOIdE6StitchEv
0000000000003a60 S __ZN4QPBOIdE6StitchEv.eh
0000000000001850 S __ZN4QPBOIdE7AddNodeEi
0000000000003898 S __ZN4QPBOIdE7AddNodeEi.eh
0000000000002380 S __ZN4QPBOIdE7GetMateEPNS0_3ArcE
0000000000003bf0 S __ZN4QPBOIdE7GetMateEPNS0_3ArcE.eh
00000000000022d0 S __ZN4QPBOIdE7GetMateEPNS0_4NodeE
0000000000003b50 S __ZN4QPBOIdE7GetMateEPNS0_4NodeE.eh
0000000000001cb0 S __ZN4QPBOIdE7IsNode0EPNS0_4NodeE
00000000000039e8 S __ZN4QPBOIdE7IsNode0EPNS0_4NodeE.eh
00000000000019b0 S __ZN4QPBOIdE8GetLabelEi
00000000000038f0 S __ZN4QPBOIdE8GetLabelEi.eh
0000000000002300 S __ZN4QPBOIdE8GetMate0EPNS0_3ArcE
0000000000003ba0 S __ZN4QPBOIdE8GetMate0EPNS0_3ArcE.eh
0000000000001fc0 S __ZN4QPBOIdE8GetMate0EPNS0_4NodeE
0000000000003a38 S __ZN4QPBOIdE8GetMate0EPNS0_4NodeE.eh
0000000000002340 S __ZN4QPBOIdE8GetMate1EPNS0_3ArcE
0000000000003bc8 S __ZN4QPBOIdE8GetMate1EPNS0_3ArcE.eh
0000000000002120 S __ZN4QPBOIdE8GetMate1EPNS0_4NodeE
0000000000003a88 S __ZN4QPBOIdE8GetMate1EPNS0_4NodeE.eh
0000000000001a00 S __ZN4QPBOIdE8SetLabelEii
0000000000003918 S __ZN4QPBOIdE8SetLabelEii.eh
0000000000002160 S __ZN4QPBOIdE9GetRegionEi
0000000000003ab0 S __ZN4QPBOIdE9GetRegionEi.eh
0000000000002440 S __ZN4QPBOIdE9mark_nodeEPNS0_4NodeE
0000000000003c40 S __ZN4QPBOIdE9mark_nodeEPNS0_4NodeE.eh
0000000000000e00 S __ZN4QPBOIfE10GetNodeNumEv
0000000000003520 S __ZN4QPBOIfE10GetNodeNumEv.eh
0000000000001730 S __ZN4QPBOIfE12AddUnaryTermEPNS0_4NodeEff
00000000000037f8 S __ZN4QPBOIfE12AddUnaryTermEPNS0_4NodeEff.eh
0000000000000cd0 S __ZN4QPBOIfE12AddUnaryTermEiff
00000000000034a8 S __ZN4QPBOIfE12AddUnaryTermEiff.eh
00000000000015b0 S __ZN4QPBOIfE12ProbeOptionsC1Ev
00000000000036e0 S __ZN4QPBOIfE12ProbeOptionsC1Ev.eh
0000000000001570 S __ZN4QPBOIfE12ProbeOptionsC2Ev
00000000000036b8 S __ZN4QPBOIfE12ProbeOptionsC2Ev.eh
0000000000001810 S __ZN4QPBOIfE12what_segmentEPNS0_4NodeEi
0000000000003848 S __ZN4QPBOIfE12what_segmentEPNS0_4NodeEi.eh
0000000000000bd0 S __ZN4QPBOIfE13GetMaxEdgeNumEv
0000000000003450 S __ZN4QPBOIfE13GetMaxEdgeNumEv.eh
0000000000000e20 S __ZN4QPBOIfE13GetNextEdgeIdEi
0000000000003548 S __ZN4QPBOIfE13GetNextEdgeIdEi.eh
00000000000015f0 S __ZN4QPBOIfE14ComputeWeightsEffffRfS1_S1_S1_
0000000000003708 S __ZN4QPBOIfE14ComputeWeightsEffffRfS1_S1_S1_.eh
                 U __ZN4QPBOIfE16reallocate_nodesEi
0000000000000e70 S __ZN4QPBOIfE17GetTwiceUnaryTermEiRfS1_
0000000000003570 S __ZN4QPBOIfE17GetTwiceUnaryTermEiRfS1_.eh
0000000000000ee0 S __ZN4QPBOIfE20GetTwicePairwiseTermEiRiS1_RfS2_S2_S2_
0000000000003598 S __ZN4QPBOIfE20GetTwicePairwiseTermEiRiS1_RfS2_S2_S2_.eh
0000000000001060 S __ZN4QPBOIfE24ComputeWeakPersistenciesEv
00000000000035f0 S __ZN4QPBOIfE24ComputeWeakPersistenciesEv.eh
0000000000001680 S __ZN4QPBOIfE6IsArc0EPNS0_3ArcE
0000000000003758 S __ZN4QPBOIfE6IsArc0EPNS0_3ArcE.eh
00000000000013a0 S __ZN4QPBOIfE6StitchEv
0000000000003640 S __ZN4QPBOIfE6StitchEv.eh
0000000000000bf0 S __ZN4QPBOIfE7AddNodeEi
0000000000003478 S __ZN4QPBOIfE7AddNodeEi.eh
0000000000001710 S __ZN4QPBOIfE7GetMateEPNS0_3ArcE
00000000000037d0 S __ZN4QPBOIfE7GetMateEPNS0_3ArcE.eh
0000000000001660 S __ZN4QPBOIfE7GetMateEPNS0_4NodeE
0000000000003730 S __ZN4QPBOIfE7GetMateEPNS0_4NodeE.eh
0000000000001050 S __ZN4QPBOIfE7IsNode0EPNS0_4NodeE
00000000000035c8 S __ZN4QPBOIfE7IsNode0EPNS0_4NodeE.eh
0000000000000d50 S __ZN4QPBOIfE8GetLabelEi
00000000000034d0 S __ZN4QPBOIfE8GetLabelEi.eh
0000000000001690 S __ZN4QPBOIfE8GetMate0EPNS0_3ArcE
0000000000003780 S __ZN4QPBOIfE8GetMate0EPNS0_3ArcE.eh
0000000000001360 S __ZN4QPBOIfE8GetMate0EPNS0_4NodeE
0000000000003618 S __ZN4QPBOIfE8GetMate0EPNS0_4NodeE.eh
00000000000016d0 S __ZN4QPBOIfE8GetMate1EPNS0_3ArcE
00000000000037a8 S __ZN4QPBOIfE8GetMate1EPNS0_3ArcE.eh
00000000000014c0 S __ZN4QPBOIfE8GetMate1EPNS0_4NodeE
0000000000003668 S __ZN4QPBOIfE8GetMate1EPNS0_4NodeE.eh
0000000000000da0 S __ZN4QPBOIfE8SetLabelEii
00000000000034f8 S __ZN4QPBOIfE8SetLabelEii.eh
0000000000001500 S __ZN4QPBOIfE9GetRegionEi
0000000000003690 S __ZN4QPBOIfE9GetRegionEi.eh
00000000000017d0 S __ZN4QPBOIfE9mark_nodeEPNS0_4NodeE
0000000000003820 S __ZN4QPBOIfE9mark_nodeEPNS0_4NodeE.eh
0000000000000210 S __ZN4QPBOIiE10GetNodeNumEv
0000000000003100 S __ZN4QPBOIiE10GetNodeNumEv.eh
0000000000000af0 S __ZN4QPBOIiE12AddUnaryTermEPNS0_4NodeEii
00000000000033d8 S __ZN4QPBOIiE12AddUnaryTermEPNS0_4NodeEii.eh
0000000000000100 S __ZN4QPBOIiE12AddUnaryTermEiii
0000000000003088 S __ZN4QPBOIiE12AddUnaryTermEiii.eh
0000000000000980 S __ZN4QPBOIiE12ProbeOptionsC1Ev
00000000000032c0 S __ZN4QPBOIiE12ProbeOptionsC1Ev.eh
0000000000000940 S __ZN4QPBOIiE12ProbeOptionsC2Ev
0000000000003298 S __ZN4QPBOIiE12ProbeOptionsC2Ev.eh
0000000000000bb0 S __ZN4QPBOIiE12what_segmentEPNS0_4NodeEi
0000000000003428 S __ZN4QPBOIiE12what_segmentEPNS0_4NodeEi.eh
0000000000000000 S __ZN4QPBOIiE13GetMaxEdgeNumEv
0000000000003030 S __ZN4QPBOIiE13GetMaxEdgeNumEv.eh
0000000000000230 S __ZN4QPBOIiE13GetNextEdgeIdEi
0000000000003128 S __ZN4QPBOIiE13GetNextEdgeIdEi.eh
00000000000009c0 S __ZN4QPBOIiE14ComputeWeightsEiiiiRiS1_S1_S1_
00000000000032e8 S __ZN4QPBOIiE14ComputeWeightsEiiiiRiS1_S1_S1_.eh
                 U __ZN4QPBOIiE16reallocate_nodesEi
0000000000000280 S __ZN4QPBOIiE17GetTwiceUnaryTermEiRiS1_
0000000000003150 S __ZN4QPBOIiE17GetTwiceUnaryTermEiRiS1_.eh
00000000000002f0 S __ZN4QPBOIiE20GetTwicePairwiseTermEiRiS1_S1_S1_S1_S1_
0000000000003178 S __ZN4QPBOIiE20GetTwicePairwiseTermEiRiS1_S1_S1_S1_S1_.eh
0000000000000450 S __ZN4QPBOIiE24ComputeWeakPersistenciesEv
00000000000031d0 S __ZN4QPBOIiE24ComputeWeakPersistenciesEv.eh
0000000000000a40 S __ZN4QPBOIiE6IsArc0EPNS0_3ArcE
0000000000003338 S __ZN4QPBOIiE6IsArc0EPNS0_3ArcE.eh
0000000000000780 S __ZN4QPBOIiE6StitchEv
0000000000003220 S __ZN4QPBOIiE6StitchEv.eh
0000000000000020 S __ZN4QPBOIiE7AddNodeEi
0000000000003058 S __ZN4QPBOIiE7AddNodeEi.eh
0000000000000ad0 S __ZN4QPBOIiE7GetMateEPNS0_3ArcE
00000000000033b0 S __ZN4QPBOIiE7GetMateEPNS0_3ArcE.eh
0000000000000a20 S __ZN4QPBOIiE7GetMateEPNS0_4NodeE
0000000000003310 S __ZN4QPBOIiE7GetMateEPNS0_4NodeE.eh
0000000000000440 S __ZN4QPBOIiE7IsNode0EPNS0_4NodeE
00000000000031a8 S __ZN4QPBOIiE7IsNode0EPNS0_4NodeE.eh
0000000000000160 S __ZN4QPBOIiE8GetLabelEi
00000000000030b0 S __ZN4QPBOIiE8GetLabelEi.eh
0000000000000a50 S __ZN4QPBOIiE8GetMate0EPNS0_3ArcE
0000000000003360 S __ZN4QPBOIiE8GetMate0EPNS0_3ArcE.eh
0000000000000740 S __ZN4QPBOIiE8GetMate0EPNS0_4NodeE
00000000000031f8 S __ZN4QPBOIiE8GetMate0EPNS0_4NodeE.eh
0000000000000a90 S __ZN4QPBOIiE8GetMate1EPNS0_3ArcE
0000000000003388 S __ZN4QPBOIiE8GetMate1EPNS0_3ArcE.eh
0000000000000890 S __ZN4QPBOIiE8GetMate1EPNS0_4NodeE
0000000000003248 S __ZN4QPBOIiE8GetMate1EPNS0_4NodeE.eh
00000000000001b0 S __ZN4QPBOIiE8SetLabelEii
00000000000030d8 S __ZN4QPBOIiE8SetLabelEii.eh
00000000000008d0 S __ZN4QPBOIiE9GetRegionEi
0000000000003270 S __ZN4QPBOIiE9GetRegionEi.eh
0000000000000b70 S __ZN4QPBOIiE9mark_nodeEPNS0_4NodeE
0000000000003400 S __ZN4QPBOIiE9mark_nodeEPNS0_4NodeE.eh
                 U ___assert_rtn
                 U ___bzero
